#include <math.h>
#include <stdio.h>
#include <stdlib.h>
#include <string.h>
#include <iostream>
using namespace std;

/*
hw.cpp
????yang?
?????????????????????????????????????? 
???10.28
*/
int main()
{
	int n[100001],k,n1,z=0;
	cin>>n1;
	for(int i=0;i<n1;i++)
	{cin>>n[i];}
	cin>>k;//??????????????
	for(int i=0;i<n1;i++)
	{
		if(n[i]!=k){//????k?????
			z=z+1;//??????????????
			if(z==1)
				cout<<n[i];
			else
				cout<<" "<<n[i];//???????
		}
	}
	return 0;
}